Certificate:
    Data:
        Version: 3 (0x2)
        Serial Number: 1 (0x1)
    Signature Algorithm: sha256WithRSAEncryption
        Issuer: C=US, ST=CA, L=SanFrancisco, O=Fort-Funston, OU=MyOrganizationalUnit, CN=Fort-Funston CA/name=EasyRSA/emailAddress=me@myhost.mydomain
        Validity
            Not Before: Jun  2 17:44:26 2015 GMT
            Not After : May 30 17:44:26 2025 GMT
        Subject: C=US, ST=CA, L=SanFrancisco, O=Fort-Funston, OU=MyOrganizationalUnit, CN=openvpn-server/name=EasyRSA/emailAddress=me@myhost.mydomain
        Subject Public Key Info:
            Public Key Algorithm: rsaEncryption
                Public-Key: (2048 bit)
                Modulus:
                    00:ba:32:eb:ea:f1:35:6b:36:9f:95:a4:57:93:85:
                    6e:89:f5:a3:16:ab:80:34:1d:95:c1:23:54:b9:d4:
                    3c:cf:3d:cc:94:d1:e6:36:d7:1c:92:d2:87:8b:f4:
                    69:ab:e8:f3:2a:cb:22:ed:bf:04:06:dd:af:85:d3:
                    d7:36:fe:c3:f0:d2:a6:17:83:dc:ca:6b:9e:ab:ee:
                    8b:ff:5b:ae:94:67:82:71:35:02:a6:4c:71:f5:4e:
                    9d:77:15:89:c0:c3:16:8d:ed:e6:d7:3f:65:2e:ec:
                    ab:67:28:00:df:d3:c1:91:e7:44:57:0c:13:2b:f1:
                    8f:05:2d:a9:e7:18:b7:4e:78:ed:1b:e1:6f:3c:a5:
                    d0:e5:9b:1e:a8:45:c5:66:28:70:7c:3f:0b:40:36:
                    bd:f4:14:15:fa:bc:dd:4a:25:2f:79:65:c5:3c:64:
                    d3:f0:b8:08:e2:2a:2b:e6:f7:ab:04:78:9b:f7:4c:
                    cb:53:c3:0f:91:6d:af:a9:80:5e:55:06:30:2a:13:
                    3d:0e:cd:42:d3:e4:16:dc:16:3a:3c:3f:bb:66:6b:
                    c2:8a:1e:b0:b3:c2:49:9a:70:28:4a:a5:b7:bb:fa:
                    5d:b5:c7:e7:d0:c2:74:21:45:5b:9d:ca:b7:6a:59:
                    c2:7b:84:aa:13:6c:d9:d1:70:2a:9c:94:27:c7:30:
                    16:b7
                Exponent: 65537 (0x10001)
        X509v3 extensions:
            X509v3 Basic Constraints: 
                CA:FALSE
            Netscape Cert Type: 
                SSL Server
            Netscape Comment: 
                Easy-RSA Generated Server Certificate
            X509v3 Subject Key Identifier: 
                57:14:95:C6:B2:BC:50:AB:A4:0C:12:45:D2:42:65:76:F9:3F:6E:C5
            X509v3 Authority Key Identifier: 
                keyid:3F:96:A5:97:FE:B6:8B:75:69:BE:A3:EC:C6:8B:E3:C3:95:68:7B:C7
                DirName:/C=US/ST=CA/L=SanFrancisco/O=Fort-Funston/OU=MyOrganizationalUnit/CN=Fort-Funston CA/name=EasyRSA/emailAddress=me@myhost.mydomain
                serial:B2:7E:86:25:7B:BF:06:46

            X509v3 Extended Key Usage: 
                TLS Web Server Authentication
            X509v3 Key Usage: 
                Digital Signature, Key Encipherment
            X509v3 Subject Alternative Name: 
                DNS:openvpn-server
    Signature Algorithm: sha256WithRSAEncryption
         26:2e:68:74:6d:67:f5:69:1c:39:79:9a:84:6d:7f:9f:24:3e:
         cb:ac:a6:8b:2a:df:c8:10:24:ce:9b:cd:59:22:53:33:38:b3:
         e7:27:b8:28:79:8c:43:7c:f9:f7:2b:86:c3:f4:53:3f:02:64:
         86:7b:95:f3:94:61:59:3c:27:c4:b1:d1:96:51:57:b6:05:49:
         0a:9c:5a:cf:76:07:19:eb:86:31:76:d9:1c:2a:99:12:ef:46:
         b6:e8:08:59:c4:84:7f:fd:75:96:c1:b1:39:2c:85:e2:57:6f:
         d9:21:4f:f6:b8:9f:0b:72:19:3a:2c:66:5a:8f:d1:c7:8b:c6:
         b2:c6:ca:d2:b0:3d:21:df:0a:77:60:7d:a7:5e:d4:63:ab:ab:
         bf:7d:98:b2:14:01:71:ec:1e:88:bf:a0:45:ef:5f:ad:34:56:
         30:d4:4b:df:66:a0:71:6d:15:ce:66:be:04:e6:1e:b3:98:8b:
         b6:9f:d1:61:68:cb:20:88:42:f0:51:f8:da:e4:47:f9:2f:56:
         d7:cf:cb:ce:f8:1a:cb:e4:a0:a1:d7:0d:9f:5b:68:80:ba:6e:
         f2:8e:bf:9e:0c:05:26:1b:59:a0:96:13:a9:6d:e2:25:65:73:
         de:17:0b:d0:4d:3b:f3:3d:c9:96:64:1f:50:94:27:09:a6:f3:
         dd:0b:25:5a
-----BEGIN CERTIFICATE-----
MIIFjDCCBHSgAwIBAgIBATANBgkqhkiG9w0BAQsFADCBtjELMAkGA1UEBhMCVVMx
CzAJBgNVBAgTAkNBMRUwEwYDVQQHEwxTYW5GcmFuY2lzY28xFTATBgNVBAoTDEZv
cnQtRnVuc3RvbjEdMBsGA1UECxMUTXlPcmdhbml6YXRpb25hbFVuaXQxGDAWBgNV
BAMTD0ZvcnQtRnVuc3RvbiBDQTEQMA4GA1UEKRMHRWFzeVJTQTEhMB8GCSqGSIb3
DQEJARYSbWVAbXlob3N0Lm15ZG9tYWluMB4XDTE1MDYwMjE3NDQyNloXDTI1MDUz
MDE3NDQyNlowgbUxCzAJBgNVBAYTAlVTMQswCQYDVQQIEwJDQTEVMBMGA1UEBxMM
U2FuRnJhbmNpc2NvMRUwEwYDVQQKEwxGb3J0LUZ1bnN0b24xHTAbBgNVBAsTFE15
T3JnYW5pemF0aW9uYWxVbml0MRcwFQYDVQQDEw5vcGVudnBuLXNlcnZlcjEQMA4G
A1UEKRMHRWFzeVJTQTEhMB8GCSqGSIb3DQEJARYSbWVAbXlob3N0Lm15ZG9tYWlu
MIIBIjANBgkqhkiG9w0BAQEFAAOCAQ8AMIIBCgKCAQEAujLr6vE1azaflaRXk4Vu
ifWjFquANB2VwSNUudQ8zz3MlNHmNtccktKHi/Rpq+jzKssi7b8EBt2vhdPXNv7D
8NKmF4Pcymueq+6L/1uulGeCcTUCpkxx9U6ddxWJwMMWje3m1z9lLuyrZygA39PB
kedEVwwTK/GPBS2p5xi3TnjtG+FvPKXQ5ZseqEXFZihwfD8LQDa99BQV+rzdSiUv
eWXFPGTT8LgI4ior5verBHib90zLU8MPkW2vqYBeVQYwKhM9Ds1C0+QW3BY6PD+7
ZmvCih6ws8JJmnAoSqW3u/pdtcfn0MJ0IUVbncq3alnCe4SqE2zZ0XAqnJQnxzAW
twIDAQABo4IBojCCAZ4wCQYDVR0TBAIwADARBglghkgBhvhCAQEEBAMCBkAwNAYJ
YIZIAYb4QgENBCcWJUVhc3ktUlNBIEdlbmVyYXRlZCBTZXJ2ZXIgQ2VydGlmaWNh
dGUwHQYDVR0OBBYEFFcUlcayvFCrpAwSRdJCZXb5P27FMIHrBgNVHSMEgeMwgeCA
FD+WpZf+tot1ab6j7MaL48OVaHvHoYG8pIG5MIG2MQswCQYDVQQGEwJVUzELMAkG
A1UECBMCQ0ExFTATBgNVBAcTDFNhbkZyYW5jaXNjbzEVMBMGA1UEChMMRm9ydC1G
dW5zdG9uMR0wGwYDVQQLExRNeU9yZ2FuaXphdGlvbmFsVW5pdDEYMBYGA1UEAxMP
Rm9ydC1GdW5zdG9uIENBMRAwDgYDVQQpEwdFYXN5UlNBMSEwHwYJKoZIhvcNAQkB
FhJtZUBteWhvc3QubXlkb21haW6CCQCyfoYle78GRjATBgNVHSUEDDAKBggrBgEF
BQcDATALBgNVHQ8EBAMCBaAwGQYDVR0RBBIwEIIOb3BlbnZwbi1zZXJ2ZXIwDQYJ
KoZIhvcNAQELBQADggEBACYuaHRtZ/VpHDl5moRtf58kPsusposq38gQJM6bzVki
UzM4s+cnuCh5jEN8+fcrhsP0Uz8CZIZ7lfOUYVk8J8Sx0ZZRV7YFSQqcWs92Bxnr
hjF22RwqmRLvRrboCFnEhH/9dZbBsTksheJXb9khT/a4nwtyGTosZlqP0ceLxrLG
ytKwPSHfCndgfade1GOrq799mLIUAXHsHoi/oEXvX600VjDUS99moHFtFc5mvgTm
HrOYi7af0WFoyyCIQvBR+NrkR/kvVtfPy874GsvkoKHXDZ9baIC6bvKOv54MBSYb
WaCWE6lt4iVlc94XC9BNO/M9yZZkH1CUJwmm890LJVo=
-----END CERTIFICATE-----
